; Function Attrs: mustprogress nofree norecurse nosync nounwind willreturn memory(read, inaccessiblemem: none) uwtable
define noundef zeroext i1 @_ZNK8proxygen18HTTP2PriorityQueue4Node14isDescendantOfEPS1_(ptr nocapture noundef nonnull readonly align 8 dereferenceable(200) %this, ptr nocapture noundef readonly %node) local_unnamed_addr #12 align 2 {
entry:
  %id_2 = getelementptr inbounds i8, ptr %node, i64 88
  br label %while.cond

while.cond:                                       ; preds = %while.body, %entry
  %this.pn = phi ptr [ %this, %entry ], [ %cur.0, %while.body ]
  %cur.0.in = getelementptr inbounds i8, ptr %this.pn, i64 80
  %cur.0 = load ptr, ptr %cur.0.in, align 8
  %tobool.not.not = icmp ne ptr %cur.0, null
  br i1 %tobool.not.not, label %while.body, label %return

while.body:                                       ; preds = %while.cond
  %id_ = getelementptr inbounds i8, ptr %cur.0, i64 88
  %0 = load i64, ptr %id_, align 8
  %1 = load i64, ptr %id_2, align 8
  %cmp = icmp eq i64 %0, %1
  br i1 %cmp, label %return, label %while.cond, !llvm.loop !21

return:                                           ; preds = %while.cond, %while.body
  ret i1 %tobool.not.not
}